(dp1
I0
S'Lock_(computer_science)'
p2
sI1
S'Volume_rendering'
p3
sI2
S'Graphical_model'
p4
sI3
S'Logic'
p5
sI4
S'File_system'
p6
sI5
S'Vulnerability_(computing)'
p7
sI6
S'Cloud_computing'
p8
sI7
S'Nonlinear_system'
p9
sI8
S'Robot'
p10
sI9
S'Quantum_computer'
p11
sI10
S'Quantum_cryptography'
p12
sI11
S'Quantum_mechanics'
p13
sI12
S'Cluster_analysis'
p14
sI13
S'Logic_programming'
p15
sI14
S'Robotics'
p16
sI15
S'ML_(programming_language)'
p17
sI16
S'Wavelet'
p18
sI17
S'Very_long_instruction_word'
p19
sI18
S'Concurrency_control'
p20
sI19
S'Mobile_device'
p21
sI20
S'Query_language'
p22
sI21
S'Perl'
p23
sI22
S'Query_optimization'
p24
sI23
S'Concurrency_(computer_science)'
p25
sI24
S'Concurrent_computing'
p26
sI25
S'Question_answering'
p27
sI26
S'Finite_difference'
p28
sI27
S'Web_browser'
p29
sI28
S'Finite_element_method'
p30
sI29
S'Personal_computer'
p31
sI30
S'Conditional_probability'
p32
sI31
S'Firewall_(computing)'
p33
sI32
S'Java_(programming_language)'
p34
sI33
S'Web_search_engine'
p35
sI34
S'Fixed_point_(mathematics)'
p36
sI35
S'Numerical_analysis'
p37
sI36
S'Web_server'
p38
sI37
S'JavaScript'
p39
sI38
S'Web_service'
p40
sI39
S'Machine_learning'
p41
sI40
S'3D_modeling'
p42
sI41
S'Random_graph'
p43
sI42
S'Index_(database)'
p44
sI43
S'Floating_point'
p45
sI44
S'Halting_problem'
p46
sI45
S'Congestion_control'
p47
sI46
S'Analysis_of_algorithms'
p48
sI47
S'Random_walk'
p49
sI48
S'Randomization'
p50
sI49
S'Machine_translation'
p51
sI50
S'Routing'
p52
sI51
S'Randomized_algorithm'
p53
sI52
S'Data_(computing)'
p54
sI53
S'Randomness'
p55
sI54
S'Turing_machine'
p56
sI55
S'Data_analysis'
p57
sI56
S'Run_time_(program_lifecycle_phase)'
p58
sI57
S'Object_(computer_science)'
p59
sI58
S'Inequality_(mathematics)'
p60
sI59
S'Combinatorics'
p61
sI60
S'Inference'
p62
sI61
S'Type_system'
p63
sI62
S'Kinematics'
p64
sI63
S'Bayesian'
p65
sI64
S'Bayesian_network'
p66
sI65
S'Social_network'
p67
sI66
S'Ray_tracing_(graphics)'
p68
sI67
S'Hash_table'
p69
sI68
S'Differential_equation'
p70
sI69
S'Matrix_(mathematics)'
p71
sI70
S'Abstract_data_type'
p72
sI71
S'Data_mining'
p73
sI72
S'Information_assurance'
p74
sI73
S'Haskell_(programming_language)'
p75
sI74
S'Model_of_computation'
p76
sI75
S'Software_design'
p77
sI76
S'Scalability'
p78
sI77
S'Communication'
p79
sI78
S'Software_development'
p80
sI79
S'Uncertainty'
p81
sI80
S'Application_programming_interface'
p82
sI81
S'Abstraction_(computer_science)'
p83
sI82
S'Software_engineering'
p84
sI83
S'Big_data'
p85
sI84
S'Profiling_(computer_programming)'
p86
sI85
S'Formal_language'
p87
sI86
S'Program_analysis'
p88
sI87
S'Information_security'
p89
sI88
S'Malware'
p90
sI89
S'Tensor'
p91
sI90
S'Formal_methods'
p92
sI91
S'Digital_signature'
p93
sI92
S'Data_structure'
p94
sI93
S'Reason'
p95
sI94
S'Software_framework'
p96
sI95
S'Communications_protocol'
p97
sI96
S'Formal_verification'
p98
sI97
S'Bioinformatics'
p99
sI98
S'Operating_system'
p100
sI99
S'Inheritance_(object-oriented_programming)'
p101
sI100
S'World_Wide_Web'
p102
sI101
S'Hidden_Markov_model'
p103
sI102
S'Programmer'
p104
sI103
S'Entropy'
p105
sI104
S'Data_type'
p106
sI105
S'Image_analysis'
p107
sI106
S'Scheduling_(computing)'
p108
sI107
S'Relational_algebra'
p109
sI108
S'Data_warehouse'
p110
sI109
S'Database'
p111
sI110
S'Software_testing'
p112
sI111
S'Database_management_system'
p113
sI112
S'Database_normalization'
p114
sI113
S'Foundations_of_mathematics'
p115
sI114
S'Fourier_analysis'
p116
sI115
S'Recommender_system'
p117
sI116
S'Instruction_set'
p118
sI117
S'Discrete_mathematics'
p119
sI118
S'Compiler'
p120
sI119
S'Knowledge_representation_and_reasoning'
p121
sI120
S'MapReduce'
p122
sI121
S'Sufficient_statistic'
p123
sI122
S'Recurrence_relation'
p124
sI123
S'Database_system'
p125
sI124
S'Modular_programming'
p126
sI125
S'Markov_chain'
p127
sI126
S'Relational_model'
p128
sI127
S'HTML'
p129
sI128
S'Integer'
p130
sI129
S'Scientific_modelling'
p131
sI130
S'Markov_process'
p132
sI131
S'Deadlock'
p133
sI132
S'Integral'
p134
sI133
S'Theoretical_computer_science'
p135
sI134
S'Programming_language'
p136
sI135
S'Martingale_(probability_theory)'
p137
sI136
S'Superscalar'
p138
sI137
S'Unix'
p139
sI138
S'Boundary_value_problem'
p140
sI139
S'Debugging'
p141
sI140
S'Polymorphism_(computer_science)'
p142
sI141
S'Unsupervised_learning'
p143
sI142
S'Polynomial'
p144
sI143
S'Recursion'
p145
sI144
S'Recursively_enumerable_set'
p146
sI145
S'Support_vector_machine'
p147
sI146
S'Monad_(functional_programming)'
p148
sI147
S'Computation'
p149
sI148
S'Scientific_visualization'
p150
sI149
S'Theory_of_computation'
p151
sI150
S'Monte_Carlo_method'
p152
sI151
S'Design_of_experiments'
p153
sI152
S'hypothesis_testing'
p154
sI153
S'Decision_theory'
p155
sI154
S'Scope_(computer_science)'
p156
sI155
S'Programming_paradigm'
p157
sI156
S'Scripting_language'
p158
sI157
S'Estimation_theory'
p159
sI158
S'Distributed_algorithms'
p160
sI159
S'Large_deviations_theory'
p161
sI160
S'Distributed_computing'
p162
sI161
S'Complexity'
p163
sI162
S'Motion_capture'
p164
sI163
S'Complexity_class'
p165
sI164
S'Motion_planning'
p166
sI165
S'Approximation'
p167
sI166
S'Approximation_algorithm'
p168
sI167
S'NP_(complexity)'
p169
sI168
S'Regular_expression'
p170
sI169
S'Mathematical_model'
p171
sI170
S'Regular_language'
p172
sI171
S'Symbol_table'
p173
sI172
S'Mathematical_proof'
p174
sI173
S'Ordinary_differential_equation'
p175
sI174
S'Programming_style'
p176
sI175
S'Reinforcement_learning'
p177
sI176
S'Symmetric_multiprocessing'
p178
sI177
S'Mathematics'
p179
sI178
S'Spanning_tree'
p180
sI179
S'Synchronization'
p181
sI180
S'Divide_and_conquer_algorithm'
p182
sI181
S'Sparse_matrix'
p183
sI182
S'MATLAB'
p184
sI183
S'Security'
p185
sI184
S'Lazy_evaluation'
p186
sI185
S'Denotational_semantics'
p187
sI186
S'Document_classification'
p188
sI187
S'Cache_coherence'
p189
sI188
S'Image'
p190
sI189
S'Syntax'
p191
sI190
S'User_interface'
p192
sI191
S'User_interface_design'
p193
sI192
S'Relational_database'
p194
sI193
S'PSPACE'
p195
sI194
S'Computability'
p196
sI195
S'Image_processing'
p197
sI196
S'Interactivity'
p198
sI197
S'Calculus'
p199
sI198
S'Shared_memory'
p200
sI199
S'Time_complexity'
p201
sI200
S'Multiplication'
p202
sI201
S'Algebra'
p203
sI202
S'Predicate_logic'
p204
sI203
S'Prediction'
p205
sI204
S'Undecidable_problem'
p206
sI205
S'OSI_model'
p207
sI206
S'Mechanical_engineering'
p208
sI207
S'Speech_recognition'
p209
sI208
S'Iterative_method'
p210
sI209
S'Algorithm'
p211
sI210
S'Algorithm_design'
p212
sI211
S'Computational_complexity_theory'
p213
sI212
S'Number_theory'
p214
sI213
S'Model_checking'
p215
sI214
S'Imperative_programming'
p216
sI215
S'Game_theory'
p217
sI216
S'Computational_geometry'
p218
sI217
S'Automated_theorem_proving'
p219
sI218
S'Dynamic_memory_allocation'
p220
sI219
S'Mutual_exclusion'
p221
sI220
S'Dynamic_programming'
p222
sI221
S'Computational_problem'
p223
sI222
S'Arithmetic'
p224
sI223
S'Computational_learning_theory'
p225
sI224
S'Internet'
p226
sI225
S'Information_theory'
p227
sI226
S'SQL'
p228
sI227
S'Computer_animation'
p229
sI228
S'Garbage_collection_(computer_science)'
p230
sI229
S'Internet_Protocol_Suite'
p231
sI230
S'Packet_switching'
p232
sI231
S'Computational_science'
p233
sI232
S'Arithmetic_logic_unit'
p234
sI233
S'Interpolation'
p235
sI234
S'Semantics'
p236
sI235
S'Natural_language'
p237
sI236
S'Natural_language_processing'
p238
sI237
S'Prolog'
p239
sI238
S'Semantics_of_programming_languages'
p240
sI239
S'Artificial_intelligence'
p241
sI240
S'Computer'
p242
sI241
S'Memory_hierarchy'
p243
sI242
S'Coding_theory'
p244
sI243
S'Memory_management'
p245
sI244
S'Computer_architecture'
p246
sI245
S'Transaction_processing'
p247
sI246
S'Expert_system'
p248
sI247
S'Semidefinite_programming'
p249
sI248
S'Computer_graphics'
p250
sI249
S'Assembly_language'
p251
sI250
S'Parallel_algorithm'
p252
sI251
S'Generic_programming'
p253
sI252
S'Genetic_algorithm'
p254
sI253
S'Message_passing'
p255
sI254
S'Lexical_analysis'
p256
sI255
S'Lexical_semantics'
p257
sI256
S'Parallel_computing'
p258
sI257
S'Interaction_design'
p259
sI258
S'Variable_(computer_science)'
p260
sI259
S'Exponential_family'
p261
sI260
S'Statistical_inference'
p262
sI261
S'Vector_processor'
p263
sI262
S'Computer_network'
p264
sI263
S'Sentiment_analysis'
p265
sI264
S'Statistics'
p266
sI265
S'Sequence_alignment'
p267
sI266
S'Computer_programming'
p268
sI267
S'Geometric_modeling'
p269
sI268
S'Introduction_to_Algorithms'
p270
sI269
S'Computer_science'
p271
sI270
S'Network_security'
p272
sI271
S'System_programming'
p273
sI272
S'Eigenvalues_and_eigenvectors'
p274
sI273
S'Geometry'
p275
sI274
S'Stochastic'
p276
sI275
S'Random_variable'
p277
sI276
S'Parsing'
p278
sI277
S'Stochastic_process'
p279
sI278
S'Asymptotic_analysis'
p280
sI279
S'Computer_security'
p281
sI280
S'Atomicity_(database_systems)'
p282
sI281
S'Functional_programming'
p283
sI282
S'Partial_differential_equation'
p284
sI283
S'Computer_simulation'
p285
sI284
S'Computer_software'
p286
sI285
S'Server_(computing)'
p287
sI286
S'Computer_vision'
p288
sI287
S'Linear_algebra'
p289
sI288
S'Probability'
p290
sI289
S'Rendering_(computer_graphics)'
p291
sI290
S'Virtual_memory'
p292
sI291
S'Linear_programming'
p293
sI292
S'Virtual_reality'
p294
sI293
S'GPU'
p295
sI294
S'Authentication'
p296
sI295
S'Probability_theory'
p297
sI296
S'Gradient_descent'
p298
sI297
S'String_(computer_science)'
p299
sI298
S'Computing'
p300
sI299
S'Linear_system'
p301
sI300
S'Shading'
p302
sI301
S'Amortized_analysis'
p303
sI302
S'Pattern_matching'
p304
sI303
S'Pattern_recognition'
p305
sI304
S'Automata_theory'
p306
sI305
S'Problem_solving'
p307
sI306
S'Linked_list'
p308
sI307
S'Fast_Fourier_transform'
p309
sI308
S'Python_(programming_language)'
p310
sI309
S'Automatic_programming'
p311
sI310
S'Lisp_(programming_language)'
p312
sI311
S'Traffic_analysis'
p313
sI312
S'Neural_network'
p314
sI313
S'Feature_extraction'
p315
sI314
S'Graph_coloring'
p316
sI315
S'Autonomous_robot'
p317
sI316
S'Graph_theory'
p318
sI317
S'Structured_programming'
p319
sI318
S'Embedded_system'
p320
sI319
S'Microprocessor'
p321
sI320
S'Pushdown_automata'
p322
sI321
S'Cryptanalysis'
p323
sI322
S'Database_design'
p324
sI323
S'Signal_processing'
p325
sI324
S'Graphical_user_interface'
p326
sI325
S'Graph_(mathematics)'
p327
sI326
S'Kernel_(computing)'
p328
sI327
S'Cryptography'
p329
sI328
S'Visualization_(computer_graphics)'
p330
s.